target datalayout = "e-m:e-p270:32:32-p271:32:32-p272:64:64-i64:64-i128:128-f80:128-n8:16:32:64-S128"
target triple = "x86_64-unknown-linux-gnu"

%"class.icu_75::FilteredNormalizer2" = type { %"class.icu_75::Normalizer2", ptr, ptr }
%"class.icu_75::Normalizer2" = type { %"class.icu_75::UObject" }
%"class.icu_75::UObject" = type { ptr }

@_ZTVN6icu_7519FilteredNormalizer2E = external unnamed_addr constant { [20 x ptr] }, align 8
@_ZTVN6icu_7511Normalizer2E = external unnamed_addr constant { [20 x ptr] }, align 8
@_ZTVN6icu_757UObjectE = external unnamed_addr constant { [5 x ptr] }, align 8

; Function Attrs: mustprogress nounwind uwtable
define linkonce_odr void @_ZN6icu_757UObjectC2Ev(ptr noundef nonnull align 8 dereferenceable(8) %this) unnamed_addr #2 comdat align 2 {
entry:
  %this.addr = alloca ptr, align 8
  store ptr %this, ptr %this.addr, align 8
  %this1 = load ptr, ptr %this.addr, align 8
  store ptr getelementptr inbounds ({ [5 x ptr] }, ptr @_ZTVN6icu_757UObjectE, i32 0, i32 0, i32 2), ptr %this1, align 8
  ret void
}

; Function Attrs: mustprogress nounwind uwtable
define linkonce_odr void @_ZN6icu_7511Normalizer2C2Ev(ptr noundef nonnull align 8 dereferenceable(8) %this) unnamed_addr #2 comdat align 2 {
entry:
  %this.addr = alloca ptr, align 8
  store ptr %this, ptr %this.addr, align 8
  %this1 = load ptr, ptr %this.addr, align 8
  call void @_ZN6icu_757UObjectC2Ev(ptr noundef nonnull align 8 dereferenceable(8) %this1) #4
  store ptr getelementptr inbounds ({ [20 x ptr] }, ptr @_ZTVN6icu_7511Normalizer2E, i32 0, i32 0, i32 2), ptr %this1, align 8
  ret void
}

; Function Attrs: mustprogress nounwind uwtable
define linkonce_odr void @_ZN6icu_7519FilteredNormalizer2C2ERKNS_11Normalizer2ERKNS_10UnicodeSetE(ptr noundef nonnull align 8 dereferenceable(24) %this, ptr noundef nonnull align 8 dereferenceable(8) %n2, ptr noundef nonnull align 8 dereferenceable(200) %filterSet) unnamed_addr #2 comdat align 2 {
entry:
  %this.addr = alloca ptr, align 8
  %n2.addr = alloca ptr, align 8
  %filterSet.addr = alloca ptr, align 8
  store ptr %this, ptr %this.addr, align 8
  store ptr %n2, ptr %n2.addr, align 8
  store ptr %filterSet, ptr %filterSet.addr, align 8
  %this1 = load ptr, ptr %this.addr, align 8
  call void @_ZN6icu_7511Normalizer2C2Ev(ptr noundef nonnull align 8 dereferenceable(8) %this1) #4
  store ptr getelementptr inbounds ({ [20 x ptr] }, ptr @_ZTVN6icu_7519FilteredNormalizer2E, i32 0, i32 0, i32 2), ptr %this1, align 8
  %norm2 = getelementptr inbounds %"class.icu_75::FilteredNormalizer2", ptr %this1, i32 0, i32 1
  %0 = load ptr, ptr %n2.addr, align 8
  store ptr %0, ptr %norm2, align 8
  %set = getelementptr inbounds %"class.icu_75::FilteredNormalizer2", ptr %this1, i32 0, i32 2
  %1 = load ptr, ptr %filterSet.addr, align 8
  store ptr %1, ptr %set, align 8
  ret void
}

; Function Attrs: mustprogress nounwind uwtable
define internal noundef signext i8 @_ZL9U_FAILURE10UErrorCode(i32 noundef %code) #2 {
entry:
  %code.addr = alloca i32, align 4
  store i32 %code, ptr %code.addr, align 4
  %0 = load i32, ptr %code.addr, align 4
  %cmp = icmp sgt i32 %0, 0
  %conv = zext i1 %cmp to i8
  ret i8 %conv
}

; Function Attrs: mustprogress uwtable
define internal noundef i32 @_ZL13unorm_iterateP13UCharIteratoraPDsi18UNormalizationModeiaPaP10UErrorCode(ptr noundef %src, i8 noundef signext %forward, ptr noundef %dest, i32 noundef %destCapacity, i32 noundef %mode, i32 noundef %options, i8 noundef signext %doNormalize, ptr noundef %pNeededToNormalize, ptr noundef %pErrorCode) #0 personality ptr @__gxx_personality_v0 {
entry:
  %retval = alloca i32, align 4
  %src.addr = alloca ptr, align 8
  %forward.addr = alloca i8, align 1
  %dest.addr = alloca ptr, align 8
  %destCapacity.addr = alloca i32, align 4
  %mode.addr = alloca i32, align 4
  %options.addr = alloca i32, align 4
  %doNormalize.addr = alloca i8, align 1
  %pNeededToNormalize.addr = alloca ptr, align 8
  %pErrorCode.addr = alloca ptr, align 8
  %n2 = alloca ptr, align 8
  %uni32 = alloca ptr, align 8
  %fn2 = alloca %"class.icu_75::FilteredNormalizer2", align 8
  %exn.slot = alloca ptr, align 8
  %ehselector.slot = alloca i32, align 4
  store ptr %src, ptr %src.addr, align 8
  store i8 %forward, ptr %forward.addr, align 1
  store ptr %dest, ptr %dest.addr, align 8
  store i32 %destCapacity, ptr %destCapacity.addr, align 4
  store i32 %mode, ptr %mode.addr, align 4
  store i32 %options, ptr %options.addr, align 4
  store i8 %doNormalize, ptr %doNormalize.addr, align 1
  store ptr %pNeededToNormalize, ptr %pNeededToNormalize.addr, align 8
  store ptr %pErrorCode, ptr %pErrorCode.addr, align 8
  %0 = load i32, ptr %mode.addr, align 4
  %1 = load ptr, ptr %pErrorCode.addr, align 8
  %call = call noundef ptr @_ZN6icu_7518Normalizer2Factory11getInstanceE18UNormalizationModeR10UErrorCode(i32 noundef %0, ptr noundef nonnull align 4 dereferenceable(4) %1)
  store ptr %call, ptr %n2, align 8
  %2 = load i32, ptr %options.addr, align 4
  %and = and i32 %2, 32
  %tobool = icmp ne i32 %and, 0
  br i1 %tobool, label %if.then, label %if.end6

if.then:                                          ; preds = %entry
  %3 = load ptr, ptr %pErrorCode.addr, align 8
  %call1 = call ptr @uniset_getUnicode32Instance_75(ptr noundef nonnull align 4 dereferenceable(4) %3)
  store ptr %call1, ptr %uni32, align 8
  %4 = load ptr, ptr %pErrorCode.addr, align 8
  %5 = load i32, ptr %4, align 4
  %call2 = call noundef signext i8 @_ZL9U_FAILURE10UErrorCode(i32 noundef %5)
  %tobool3 = icmp ne i8 %call2, 0
  br i1 %tobool3, label %if.then4, label %if.end

if.then4:                                         ; preds = %if.then
  store i32 0, ptr %retval, align 4
  br label %return

if.end:                                           ; preds = %if.then
  %6 = load ptr, ptr %n2, align 8
  %7 = load ptr, ptr %uni32, align 8
  call void @_ZN6icu_7519FilteredNormalizer2C2ERKNS_11Normalizer2ERKNS_10UnicodeSetE(ptr noundef nonnull align 8 dereferenceable(24) %fn2, ptr noundef nonnull align 8 dereferenceable(8) %6, ptr noundef nonnull align 8 dereferenceable(200) %7)
  %8 = load ptr, ptr %src.addr, align 8
  %9 = load i8, ptr %forward.addr, align 1
  %10 = load ptr, ptr %dest.addr, align 8
  %11 = load i32, ptr %destCapacity.addr, align 4
  %12 = load i8, ptr %doNormalize.addr, align 1
  %13 = load ptr, ptr %pNeededToNormalize.addr, align 8
  %14 = load ptr, ptr %pErrorCode.addr, align 8
  %call5 = invoke noundef i32 @_ZL8_iterateP13UCharIteratoraPDsiPKN6icu_7511Normalizer2EaPaP10UErrorCode(ptr noundef %8, i8 noundef signext %9, ptr noundef %10, i32 noundef %11, ptr noundef %fn2, i8 noundef signext %12, ptr noundef %13, ptr noundef %14)
          to label %invoke.cont unwind label %lpad

invoke.cont:                                      ; preds = %if.end
  store i32 %call5, ptr %retval, align 4
  call void @_ZN6icu_7519FilteredNormalizer2D1Ev(ptr noundef nonnull align 8 dereferenceable(24) %fn2) #4
  br label %return

lpad:                                             ; preds = %if.end
  %15 = landingpad { ptr, i32 }
          cleanup
  %16 = extractvalue { ptr, i32 } %15, 0
  store ptr %16, ptr %exn.slot, align 8
  %17 = extractvalue { ptr, i32 } %15, 1
  store i32 %17, ptr %ehselector.slot, align 4
  call void @_ZN6icu_7519FilteredNormalizer2D1Ev(ptr noundef nonnull align 8 dereferenceable(24) %fn2) #4
  br label %eh.resume

if.end6:                                          ; preds = %entry
  %18 = load ptr, ptr %src.addr, align 8
  %19 = load i8, ptr %forward.addr, align 1
  %20 = load ptr, ptr %dest.addr, align 8
  %21 = load i32, ptr %destCapacity.addr, align 4
  %22 = load ptr, ptr %n2, align 8
  %23 = load i8, ptr %doNormalize.addr, align 1
  %24 = load ptr, ptr %pNeededToNormalize.addr, align 8
  %25 = load ptr, ptr %pErrorCode.addr, align 8
  %call7 = call noundef i32 @_ZL8_iterateP13UCharIteratoraPDsiPKN6icu_7511Normalizer2EaPaP10UErrorCode(ptr noundef %18, i8 noundef signext %19, ptr noundef %20, i32 noundef %21, ptr noundef %22, i8 noundef signext %23, ptr noundef %24, ptr noundef %25)
  store i32 %call7, ptr %retval, align 4
  br label %return

return:                                           ; preds = %if.end6, %invoke.cont, %if.then4
  %26 = load i32, ptr %retval, align 4
  ret i32 %26

eh.resume:                                        ; preds = %lpad
  %exn = load ptr, ptr %exn.slot, align 8
  %sel = load i32, ptr %ehselector.slot, align 4
  %lpad.val = insertvalue { ptr, i32 } poison, ptr %exn, 0
  %lpad.val8 = insertvalue { ptr, i32 } %lpad.val, i32 %sel, 1
  resume { ptr, i32 } %lpad.val8
}